; Function Attrs: nounwind uwtable
define hidden void @opj_jp2_setup_decoder(ptr noundef captures(none) initializes((160, 161), (168, 172)) %0, ptr noundef %1) local_unnamed_addr #0 {
  %3 = load ptr, ptr %0, align 8, !tbaa !3
  tail call void @opj_j2k_setup_decoder(ptr noundef %3, ptr noundef %1) #6
  %4 = getelementptr inbounds nuw i8, ptr %0, i64 160
  store i8 0, ptr %4, align 8, !tbaa !75
  %5 = getelementptr inbounds nuw i8, ptr %1, i64 8248
  %6 = load i32, ptr %5, align 4, !tbaa !76
  %7 = and i32 %6, 1
  %8 = getelementptr inbounds nuw i8, ptr %0, i64 168
  store i32 %7, ptr %8, align 8, !tbaa !19
  ret void
}